; Function Attrs: mustprogress nofree norecurse nosync nounwind willreturn memory(argmem: readwrite) uwtable
define internal noundef zeroext i1 @_ZNSt17_Function_handlerIFvRN12_GLOBAL__N_113test_pmgen_pmEEPS3_E10_M_managerERSt9_Any_dataRKS6_St18_Manager_operation(ptr noundef nonnull writeonly align 8 captures(none) dereferenceable(16) %0, ptr noundef nonnull align 8 dereferenceable(16) %1, i32 noundef %2) #20 align 2 personality ptr @__gxx_personality_v0 {
  switch i32 %2, label %_ZNSt14_Function_base13_Base_managerIPFvRN12_GLOBAL__N_113test_pmgen_pmEEE10_M_managerERSt9_Any_dataRKS7_St18_Manager_operation.exit [
    i32 0, label %_ZNSt14_Function_base13_Base_managerIPFvRN12_GLOBAL__N_113test_pmgen_pmEEE10_M_managerERSt9_Any_dataRKS7_St18_Manager_operation.exit.sink.split
    i32 1, label %4
    i32 2, label %.sink.split.i
  ]

4:                                                ; preds = %3
  br label %_ZNSt14_Function_base13_Base_managerIPFvRN12_GLOBAL__N_113test_pmgen_pmEEE10_M_managerERSt9_Any_dataRKS7_St18_Manager_operation.exit.sink.split

.sink.split.i:                                    ; preds = %3
  %.val.i = load ptr, ptr %1, align 8, !tbaa !32
  br label %_ZNSt14_Function_base13_Base_managerIPFvRN12_GLOBAL__N_113test_pmgen_pmEEE10_M_managerERSt9_Any_dataRKS7_St18_Manager_operation.exit.sink.split

_ZNSt14_Function_base13_Base_managerIPFvRN12_GLOBAL__N_113test_pmgen_pmEEE10_M_managerERSt9_Any_dataRKS7_St18_Manager_operation.exit.sink.split: ; preds = %3, %4, %.sink.split.i
  %.val.i.sink = phi ptr [ %.val.i, %.sink.split.i ], [ %1, %4 ], [ @_ZTIPFvRN12_GLOBAL__N_113test_pmgen_pmEE, %3 ]
  store ptr %.val.i.sink, ptr %0, align 8, !tbaa !32
  br label %_ZNSt14_Function_base13_Base_managerIPFvRN12_GLOBAL__N_113test_pmgen_pmEEE10_M_managerERSt9_Any_dataRKS7_St18_Manager_operation.exit

_ZNSt14_Function_base13_Base_managerIPFvRN12_GLOBAL__N_113test_pmgen_pmEEE10_M_managerERSt9_Any_dataRKS7_St18_Manager_operation.exit: ; preds = %_ZNSt14_Function_base13_Base_managerIPFvRN12_GLOBAL__N_113test_pmgen_pmEEE10_M_managerERSt9_Any_dataRKS7_St18_Manager_operation.exit.sink.split, %3
  ret i1 false
}